; Function Attrs: nounwind uwtable
define dso_local noundef i64 @jsonb_to_tsvector(ptr noundef readonly captures(none) %0) local_unnamed_addr #0 {
  %2 = alloca %struct.TSVectorBuildState, align 8
  %3 = alloca %struct.ParsedText, align 8
  %4 = getelementptr inbounds nuw i8, ptr %0, i64 32
  %5 = load i64, ptr %4, align 8
  %6 = inttoptr i64 %5 to ptr
  %7 = tail call ptr @pg_detoast_datum(ptr noundef %6) #8
  %8 = getelementptr inbounds nuw i8, ptr %0, i64 48
  %9 = load i64, ptr %8, align 8
  %10 = inttoptr i64 %9 to ptr
  %11 = tail call ptr @pg_detoast_datum(ptr noundef %10) #8
  %12 = tail call i32 @parse_jsonb_index_flags(ptr noundef %11) #8
  %13 = tail call i32 @getTSCurrentConfig(i1 noundef zeroext true) #8
  call void @llvm.lifetime.start.p0(i64 16, ptr nonnull %2) #8
  call void @llvm.lifetime.start.p0(i64 24, ptr nonnull %3) #8
  store ptr null, ptr %3, align 8
  %14 = getelementptr inbounds nuw i8, ptr %3, i64 12
  store i32 0, ptr %14, align 4
  store ptr %3, ptr %2, align 8
  %15 = getelementptr inbounds nuw i8, ptr %2, i64 8
  store i32 %13, ptr %15, align 8
  call void @iterate_jsonb_values(ptr noundef %7, i32 noundef %12, ptr noundef nonnull %2, ptr noundef nonnull @add_to_tsvector) #8
  %16 = call noundef ptr @make_tsvector(ptr noundef nonnull %3)
  call void @llvm.lifetime.end.p0(i64 24, ptr nonnull %3) #8
  call void @llvm.lifetime.end.p0(i64 16, ptr nonnull %2) #8
  %17 = load i64, ptr %4, align 8
  %18 = inttoptr i64 %17 to ptr
  %.not = icmp eq ptr %7, %18
  br i1 %.not, label %20, label %19

19:                                               ; preds = %1
  call void @pfree(ptr noundef %7) #8
  br label %20

20:                                               ; preds = %1, %19
  %21 = load i64, ptr %8, align 8
  %22 = inttoptr i64 %21 to ptr
  %.not13 = icmp eq ptr %11, %22
  br i1 %.not13, label %24, label %23

23:                                               ; preds = %20
  call void @pfree(ptr noundef %11) #8
  br label %24

24:                                               ; preds = %23, %20
  %25 = ptrtoint ptr %16 to i64
  ret i64 %25
}